; Function Attrs: nounwind uwtable
define ptr @Gia_ManTranStochIf(ptr noundef %0) local_unnamed_addr #0 {
  %2 = alloca %struct.If_Par_t_, align 8
  call void @llvm.lifetime.start.p0(i64 360, ptr nonnull %2) #14
  call void @If_ManSetDefaultPars(ptr noundef nonnull %2) #14
  %3 = call ptr (...) @Abc_FrameReadLibLut() #14
  %4 = getelementptr inbounds nuw i8, ptr %2, i64 288
  store ptr %3, ptr %4, align 8, !tbaa !3
  %5 = getelementptr inbounds nuw i8, ptr %3, i64 8
  %6 = load i32, ptr %5, align 8, !tbaa !13
  store i32 %6, ptr %2, align 8, !tbaa !15
  %7 = call ptr @Abc_NtkIf(ptr noundef %0, ptr noundef nonnull %2) #14
  call void @llvm.lifetime.end.p0(i64 360, ptr nonnull %2) #14
  ret ptr %7
}